; ModuleID = '22/206.c'
source_filename = "22/206.c"
target datalayout = "e-m:e-p270:32:32-p271:32:32-p272:64:64-i64:64-f80:128-n8:16:32:64-S128"
target triple = "x86_64-pc-linux-gnu"

@.str = private unnamed_addr constant [3 x i8] c"%d\00", align 1
@.str.1 = private unnamed_addr constant [4 x i8] c"No\0A\00", align 1
@.str.2 = private unnamed_addr constant [4 x i8] c"%d\0A\00", align 1

; Function Attrs: noinline nounwind uwtable
define dso_local i32 @main() #0 {
  %1 = alloca i32, align 4
  %2 = alloca [300 x i32], align 16
  %3 = alloca i32, align 4
  %4 = alloca i32, align 4
  %5 = alloca i32, align 4
  %6 = alloca i32, align 4
  %7 = alloca i32, align 4
  store i32 0, i32* %1, align 4
  store i32 1, i32* %3, align 4
  %8 = getelementptr inbounds [300 x i32], [300 x i32]* %2, i64 0, i64 1
  %9 = call i32 (i8*, ...) @__isoc99_scanf(i8* getelementptr inbounds ([3 x i8], [3 x i8]* @.str, i64 0, i64 0), i32* %8)
  br label %10

10:                                               ; preds = %13, %0
  %11 = call i32 @getchar()
  %12 = icmp ne i32 %11, 10
  br i1 %12, label %13, label %20

13:                                               ; preds = %10
  %14 = load i32, i32* %3, align 4
  %15 = add nsw i32 %14, 1
  store i32 %15, i32* %3, align 4
  %16 = load i32, i32* %3, align 4
  %17 = sext i32 %16 to i64
  %18 = getelementptr inbounds [300 x i32], [300 x i32]* %2, i64 0, i64 %17
  %19 = call i32 (i8*, ...) @__isoc99_scanf(i8* getelementptr inbounds ([3 x i8], [3 x i8]* @.str, i64 0, i64 0), i32* %18)
  br label %10

20:                                               ; preds = %10
  %21 = load i32, i32* %3, align 4
  %22 = icmp eq i32 %21, 1
  br i1 %22, label %23, label %25

23:                                               ; preds = %20
  %24 = call i32 (i8*, ...) @printf(i8* getelementptr inbounds ([4 x i8], [4 x i8]* @.str.1, i64 0, i64 0))
  br label %105

25:                                               ; preds = %20
  %26 = getelementptr inbounds [300 x i32], [300 x i32]* %2, i64 0, i64 1
  %27 = load i32, i32* %26, align 4
  store i32 %27, i32* %5, align 4
  store i32 1, i32* %4, align 4
  br label %28

28:                                               ; preds = %45, %25
  %29 = load i32, i32* %4, align 4
  %30 = load i32, i32* %3, align 4
  %31 = icmp sle i32 %29, %30
  br i1 %31, label %32, label %48

32:                                               ; preds = %28
  %33 = load i32, i32* %4, align 4
  %34 = sext i32 %33 to i64
  %35 = getelementptr inbounds [300 x i32], [300 x i32]* %2, i64 0, i64 %34
  %36 = load i32, i32* %35, align 4
  %37 = load i32, i32* %5, align 4
  %38 = icmp sgt i32 %36, %37
  br i1 %38, label %39, label %44

39:                                               ; preds = %32
  %40 = load i32, i32* %4, align 4
  %41 = sext i32 %40 to i64
  %42 = getelementptr inbounds [300 x i32], [300 x i32]* %2, i64 0, i64 %41
  %43 = load i32, i32* %42, align 4
  store i32 %43, i32* %5, align 4
  br label %44

44:                                               ; preds = %39, %32
  br label %45

45:                                               ; preds = %44
  %46 = load i32, i32* %4, align 4
  %47 = add nsw i32 %46, 1
  store i32 %47, i32* %4, align 4
  br label %28

48:                                               ; preds = %28
  store i32 1, i32* %7, align 4
  store i32 1, i32* %4, align 4
  br label %49

49:                                               ; preds = %66, %48
  %50 = load i32, i32* %4, align 4
  %51 = load i32, i32* %3, align 4
  %52 = icmp sle i32 %50, %51
  br i1 %52, label %53, label %69

53:                                               ; preds = %49
  %54 = load i32, i32* %4, align 4
  %55 = sext i32 %54 to i64
  %56 = getelementptr inbounds [300 x i32], [300 x i32]* %2, i64 0, i64 %55
  %57 = load i32, i32* %56, align 4
  %58 = load i32, i32* %5, align 4
  %59 = icmp slt i32 %57, %58
  br i1 %59, label %60, label %65

60:                                               ; preds = %53
  store i32 0, i32* %7, align 4
  %61 = load i32, i32* %4, align 4
  %62 = sext i32 %61 to i64
  %63 = getelementptr inbounds [300 x i32], [300 x i32]* %2, i64 0, i64 %62
  %64 = load i32, i32* %63, align 4
  store i32 %64, i32* %6, align 4
  br label %65

65:                                               ; preds = %60, %53
  br label %66

66:                                               ; preds = %65
  %67 = load i32, i32* %4, align 4
  %68 = add nsw i32 %67, 1
  store i32 %68, i32* %4, align 4
  br label %49

69:                                               ; preds = %49
  %70 = load i32, i32* %7, align 4
  %71 = icmp eq i32 %70, 1
  br i1 %71, label %72, label %74

72:                                               ; preds = %69
  %73 = call i32 (i8*, ...) @printf(i8* getelementptr inbounds ([4 x i8], [4 x i8]* @.str.1, i64 0, i64 0))
  br label %105

74:                                               ; preds = %69
  store i32 1, i32* %4, align 4
  br label %75

75:                                               ; preds = %99, %74
  %76 = load i32, i32* %4, align 4
  %77 = load i32, i32* %3, align 4
  %78 = icmp sle i32 %76, %77
  br i1 %78, label %79, label %102

79:                                               ; preds = %75
  %80 = load i32, i32* %4, align 4
  %81 = sext i32 %80 to i64
  %82 = getelementptr inbounds [300 x i32], [300 x i32]* %2, i64 0, i64 %81
  %83 = load i32, i32* %82, align 4
  %84 = load i32, i32* %5, align 4
  %85 = icmp slt i32 %83, %84
  br i1 %85, label %86, label %98

86:                                               ; preds = %79
  %87 = load i32, i32* %4, align 4
  %88 = sext i32 %87 to i64
  %89 = getelementptr inbounds [300 x i32], [300 x i32]* %2, i64 0, i64 %88
  %90 = load i32, i32* %89, align 4
  %91 = load i32, i32* %6, align 4
  %92 = icmp sgt i32 %90, %91
  br i1 %92, label %93, label %98

93:                                               ; preds = %86
  %94 = load i32, i32* %4, align 4
  %95 = sext i32 %94 to i64
  %96 = getelementptr inbounds [300 x i32], [300 x i32]* %2, i64 0, i64 %95
  %97 = load i32, i32* %96, align 4
  store i32 %97, i32* %6, align 4
  br label %98

98:                                               ; preds = %93, %86, %79
  br label %99

99:                                               ; preds = %98
  %100 = load i32, i32* %4, align 4
  %101 = add nsw i32 %100, 1
  store i32 %101, i32* %4, align 4
  br label %75

102:                                              ; preds = %75
  %103 = load i32, i32* %6, align 4
  %104 = call i32 (i8*, ...) @printf(i8* getelementptr inbounds ([4 x i8], [4 x i8]* @.str.2, i64 0, i64 0), i32 %103)
  br label %105

105:                                              ; preds = %102, %72, %23
  %106 = load i32, i32* %1, align 4
  ret i32 %106
}

declare dso_local i32 @__isoc99_scanf(i8*, ...) #1

declare dso_local i32 @getchar() #1

declare dso_local i32 @printf(i8*, ...) #1


!llvm.module.flags = !{!0}
!llvm.ident = !{!1}

!0 = !{i32 1, !"wchar_size", i32 4}
!1 = !{!"clang version 10.0.0-4ubuntu1 "}
